; Function Attrs: mustprogress nofree norecurse nosync nounwind willreturn memory(argmem: write) uwtable
define void @_ZN3MD54initEv(ptr noundef nonnull writeonly align 4 captures(none) dereferenceable(108) initializes((0, 1), (68, 92)) %0) local_unnamed_addr #3 align 2 {
  store i8 0, ptr %0, align 4, !tbaa !6
  %2 = getelementptr inbounds nuw i8, ptr %0, i64 68
  store i32 0, ptr %2, align 4, !tbaa !11
  %3 = getelementptr inbounds nuw i8, ptr %0, i64 72
  store i32 0, ptr %3, align 4, !tbaa !11
  %4 = getelementptr inbounds nuw i8, ptr %0, i64 76
  store i32 1732584193, ptr %4, align 4, !tbaa !11
  %5 = getelementptr inbounds nuw i8, ptr %0, i64 80
  store i32 -271733879, ptr %5, align 4, !tbaa !11
  %6 = getelementptr inbounds nuw i8, ptr %0, i64 84
  store i32 -1732584194, ptr %6, align 4, !tbaa !11
  %7 = getelementptr inbounds nuw i8, ptr %0, i64 88
  store i32 271733878, ptr %7, align 4, !tbaa !11
  ret void
}